target datalayout = "e-m:e-p270:32:32-p271:32:32-p272:64:64-i64:64-i128:128-f80:128-n8:16:32:64-S128"
target triple = "x86_64-pc-linux-gnu"

%struct.SDL_AtomicInt = type { i32 }
%struct.SDL_AudioStream = type { ptr, i32, ptr, ptr, ptr, ptr, %struct.SDL_AudioSpec, %struct.SDL_AudioSpec, ptr, ptr, float, float, ptr, %struct.SDL_AudioSpec, ptr, [8 x i32], i64, ptr, i64, i8, ptr, ptr, ptr, ptr, ptr }
%struct.SDL_AudioSpec = type { i32, i32, i32 }
%struct.SDL_LogicalAudioDevice = type { i32, ptr, %struct.SDL_AtomicInt, float, ptr, i8, i8, ptr, ptr, ptr, ptr, ptr, ptr, ptr }

@.str = private unnamed_addr constant [26 x i8] c"Parameter '%s' is invalid\00", align 1
@.str.17 = private unnamed_addr constant [12 x i8] c"num_streams\00", align 1
@.str.18 = private unnamed_addr constant [8 x i8] c"streams\00", align 1
@.str.19 = private unnamed_addr constant [89 x i8] c"Audio streams are bound to device ids from SDL_OpenAudioDevice, not raw physical devices\00", align 1
@.str.20 = private unnamed_addr constant [78 x i8] c"Cannot change stream bindings on device opened with SDL_OpenAudioDeviceStream\00", align 1
@.str.21 = private unnamed_addr constant [19 x i8] c"Stream #%d is NULL\00", align 1
@.str.22 = private unnamed_addr constant [40 x i8] c"Stream #%d is already bound to a device\00", align 1
@.str.23 = private unnamed_addr constant [73 x i8] c"Cannot change binding on a stream created with SDL_OpenAudioDeviceStream\00", align 1

; Function Attrs: nounwind uwtable
define hidden zeroext i1 @SDL_BindAudioStreams_REAL(i32 noundef %0, ptr noundef %1, i32 noundef %2) #0 {
  %4 = alloca i1, align 1
  %5 = alloca i32, align 4
  %6 = alloca ptr, align 8
  %7 = alloca i32, align 4
  %8 = alloca i8, align 1
  %9 = alloca ptr, align 8
  %10 = alloca ptr, align 8
  %11 = alloca i8, align 1
  %12 = alloca i32, align 4
  %13 = alloca i32, align 4
  %14 = alloca ptr, align 8
  %15 = alloca i32, align 4
  %16 = alloca i32, align 4
  %17 = alloca ptr, align 8
  store i32 %0, ptr %5, align 4
  store ptr %1, ptr %6, align 8
  store i32 %2, ptr %7, align 4
  call void @llvm.lifetime.start.p0(i64 1, ptr %8) #6
  %18 = load i32, ptr %5, align 4
  %19 = and i32 %18, 2
  %20 = icmp ne i32 %19, 0
  %21 = xor i1 %20, true
  %22 = zext i1 %21 to i8
  store i8 %22, ptr %8, align 1
  call void @llvm.lifetime.start.p0(i64 8, ptr %9) #6
  store ptr null, ptr %9, align 8
  call void @llvm.lifetime.start.p0(i64 8, ptr %10) #6
  store ptr null, ptr %10, align 8
  call void @llvm.lifetime.start.p0(i64 1, ptr %11) #6
  store i8 1, ptr %11, align 1
  %23 = load i32, ptr %7, align 4
  %24 = icmp eq i32 %23, 0
  br i1 %24, label %25, label %26

25:                                               ; preds = %3
  store i1 true, ptr %4, align 1
  store i32 1, ptr %12, align 4
  br label %195

26:                                               ; preds = %3
  %27 = load i32, ptr %7, align 4
  %28 = icmp slt i32 %27, 0
  br i1 %28, label %29, label %31

29:                                               ; preds = %26
  %30 = call zeroext i1 (ptr, ...) @SDL_SetError_REAL(ptr noundef @.str, ptr noundef @.str.17)
  store i1 %30, ptr %4, align 1
  store i32 1, ptr %12, align 4
  br label %195

31:                                               ; preds = %26
  %32 = load ptr, ptr %6, align 8
  %33 = icmp ne ptr %32, null
  br i1 %33, label %36, label %34

34:                                               ; preds = %31
  %35 = call zeroext i1 (ptr, ...) @SDL_SetError_REAL(ptr noundef @.str, ptr noundef @.str.18)
  store i1 %35, ptr %4, align 1
  store i32 1, ptr %12, align 4
  br label %195

36:                                               ; preds = %31
  %37 = load i8, ptr %8, align 1, !range !5, !noundef !6
  %38 = trunc i8 %37 to i1
  br i1 %38, label %41, label %39

39:                                               ; preds = %36
  %40 = call zeroext i1 (ptr, ...) @SDL_SetError_REAL(ptr noundef @.str.19)
  store i1 %40, ptr %4, align 1
  store i32 1, ptr %12, align 4
  br label %195

41:                                               ; preds = %36
  br label %42

42:                                               ; preds = %41
  br label %43

43:                                               ; preds = %42
  br label %44

44:                                               ; preds = %43
  %45 = load i32, ptr %5, align 4
  %46 = call ptr @ObtainLogicalAudioDevice(i32 noundef %45, ptr noundef %9)
  store ptr %46, ptr %10, align 8
  %47 = load ptr, ptr %10, align 8
  %48 = icmp ne ptr %47, null
  br i1 %48, label %50, label %49

49:                                               ; preds = %44
  store i8 0, ptr %11, align 1
  br label %140

50:                                               ; preds = %44
  %51 = load ptr, ptr %10, align 8
  %52 = getelementptr inbounds nuw %struct.SDL_LogicalAudioDevice, ptr %51, i32 0, i32 6
  %53 = load i8, ptr %52, align 1, !range !5, !noundef !6
  %54 = trunc i8 %53 to i1
  br i1 %54, label %55, label %58

55:                                               ; preds = %50
  %56 = call zeroext i1 (ptr, ...) @SDL_SetError_REAL(ptr noundef @.str.20)
  %57 = zext i1 %56 to i8
  store i8 %57, ptr %11, align 1
  br label %139

58:                                               ; preds = %50
  br label %59

59:                                               ; preds = %58
  br label %60

60:                                               ; preds = %59
  br label %61

61:                                               ; preds = %60
  call void @llvm.lifetime.start.p0(i64 4, ptr %13) #6
  store i32 0, ptr %13, align 4
  br label %62

62:                                               ; preds = %134, %61
  %63 = load i32, ptr %13, align 4
  %64 = load i32, ptr %7, align 4
  %65 = icmp slt i32 %63, %64
  br i1 %65, label %67, label %66

66:                                               ; preds = %62
  store i32 4, ptr %12, align 4
  br label %137

67:                                               ; preds = %62
  call void @llvm.lifetime.start.p0(i64 8, ptr %14) #6
  %68 = load ptr, ptr %6, align 8
  %69 = load i32, ptr %13, align 4
  %70 = sext i32 %69 to i64
  %71 = getelementptr inbounds ptr, ptr %68, i64 %70
  %72 = load ptr, ptr %71, align 8
  store ptr %72, ptr %14, align 8
  %73 = load ptr, ptr %14, align 8
  %74 = icmp ne ptr %73, null
  br i1 %74, label %78, label %75

75:                                               ; preds = %67
  %76 = load i32, ptr %13, align 4
  %77 = call zeroext i1 (ptr, ...) @SDL_SetError_REAL(ptr noundef @.str.21, i32 noundef %76)
  store i8 0, ptr %11, align 1
  br label %103

78:                                               ; preds = %67
  %79 = load ptr, ptr %14, align 8
  %80 = getelementptr inbounds nuw %struct.SDL_AudioStream, ptr %79, i32 0, i32 0
  %81 = load ptr, ptr %80, align 8
  call void @SDL_LockMutex_REAL(ptr noundef %81)
  br label %82

82:                                               ; preds = %78
  br label %83

83:                                               ; preds = %82
  br label %84

84:                                               ; preds = %83
  %85 = load ptr, ptr %14, align 8
  %86 = getelementptr inbounds nuw %struct.SDL_AudioStream, ptr %85, i32 0, i32 20
  %87 = load ptr, ptr %86, align 8
  %88 = icmp ne ptr %87, null
  br i1 %88, label %89, label %93

89:                                               ; preds = %84
  %90 = load i32, ptr %13, align 4
  %91 = call zeroext i1 (ptr, ...) @SDL_SetError_REAL(ptr noundef @.str.22, i32 noundef %90)
  %92 = zext i1 %91 to i8
  store i8 %92, ptr %11, align 1
  br label %102

93:                                               ; preds = %84
  %94 = load ptr, ptr %14, align 8
  %95 = getelementptr inbounds nuw %struct.SDL_AudioStream, ptr %94, i32 0, i32 19
  %96 = load i8, ptr %95, align 8, !range !5, !noundef !6
  %97 = trunc i8 %96 to i1
  br i1 %97, label %98, label %101

98:                                               ; preds = %93
  %99 = call zeroext i1 (ptr, ...) @SDL_SetError_REAL(ptr noundef @.str.23)
  %100 = zext i1 %99 to i8
  store i8 %100, ptr %11, align 1
  br label %101

101:                                              ; preds = %98, %93
  br label %102

102:                                              ; preds = %101, %89
  br label %103

103:                                              ; preds = %102, %75
  %104 = load i8, ptr %11, align 1, !range !5, !noundef !6
  %105 = trunc i8 %104 to i1
  br i1 %105, label %130, label %106

106:                                              ; preds = %103
  call void @llvm.lifetime.start.p0(i64 4, ptr %15) #6
  store i32 0, ptr %15, align 4
  br label %107

107:                                              ; preds = %119, %106
  %108 = load i32, ptr %15, align 4
  %109 = load i32, ptr %13, align 4
  %110 = icmp slt i32 %108, %109
  br i1 %110, label %111, label %122

111:                                              ; preds = %107
  %112 = load ptr, ptr %6, align 8
  %113 = load i32, ptr %15, align 4
  %114 = sext i32 %113 to i64
  %115 = getelementptr inbounds ptr, ptr %112, i64 %114
  %116 = load ptr, ptr %115, align 8
  %117 = getelementptr inbounds nuw %struct.SDL_AudioStream, ptr %116, i32 0, i32 0
  %118 = load ptr, ptr %117, align 8
  call void @SDL_UnlockMutex_REAL(ptr noundef %118)
  br label %119

119:                                              ; preds = %111
  %120 = load i32, ptr %15, align 4
  %121 = add nsw i32 %120, 1
  store i32 %121, ptr %15, align 4
  br label %107, !llvm.loop !22

122:                                              ; preds = %107
  %123 = load ptr, ptr %14, align 8
  %124 = icmp ne ptr %123, null
  br i1 %124, label %125, label %129

125:                                              ; preds = %122
  %126 = load ptr, ptr %14, align 8
  %127 = getelementptr inbounds nuw %struct.SDL_AudioStream, ptr %126, i32 0, i32 0
  %128 = load ptr, ptr %127, align 8
  call void @SDL_UnlockMutex_REAL(ptr noundef %128)
  br label %129

129:                                              ; preds = %125, %122
  store i32 4, ptr %12, align 4
  call void @llvm.lifetime.end.p0(i64 4, ptr %15) #6
  br label %131

130:                                              ; preds = %103
  store i32 0, ptr %12, align 4
  br label %131

131:                                              ; preds = %130, %129
  call void @llvm.lifetime.end.p0(i64 8, ptr %14) #6
  %132 = load i32, ptr %12, align 4
  switch i32 %132, label %137 [
    i32 0, label %133
  ]

133:                                              ; preds = %131
  br label %134

134:                                              ; preds = %133
  %135 = load i32, ptr %13, align 4
  %136 = add nsw i32 %135, 1
  store i32 %136, ptr %13, align 4
  br label %62, !llvm.loop !23

137:                                              ; preds = %131, %66
  call void @llvm.lifetime.end.p0(i64 4, ptr %13) #6
  br label %138

138:                                              ; preds = %137
  br label %139

139:                                              ; preds = %138, %55
  br label %140

140:                                              ; preds = %139, %49
  %141 = load i8, ptr %11, align 1, !range !5, !noundef !6
  %142 = trunc i8 %141 to i1
  br i1 %142, label %143, label %190

143:                                              ; preds = %140
  call void @llvm.lifetime.start.p0(i64 4, ptr %16) #6
  store i32 0, ptr %16, align 4
  br label %144

144:                                              ; preds = %186, %143
  %145 = load i32, ptr %16, align 4
  %146 = load i32, ptr %7, align 4
  %147 = icmp slt i32 %145, %146
  br i1 %147, label %149, label %148

148:                                              ; preds = %144
  store i32 12, ptr %12, align 4
  call void @llvm.lifetime.end.p0(i64 4, ptr %16) #6
  br label %189

149:                                              ; preds = %144
  call void @llvm.lifetime.start.p0(i64 8, ptr %17) #6
  %150 = load ptr, ptr %6, align 8
  %151 = load i32, ptr %16, align 4
  %152 = sext i32 %151 to i64
  %153 = getelementptr inbounds ptr, ptr %150, i64 %152
  %154 = load ptr, ptr %153, align 8
  store ptr %154, ptr %17, align 8
  %155 = load ptr, ptr %17, align 8
  %156 = icmp ne ptr %155, null
  br i1 %156, label %157, label %185

157:                                              ; preds = %149
  %158 = load ptr, ptr %10, align 8
  %159 = load ptr, ptr %17, align 8
  %160 = getelementptr inbounds nuw %struct.SDL_AudioStream, ptr %159, i32 0, i32 20
  store ptr %158, ptr %160, align 8
  %161 = load ptr, ptr %17, align 8
  %162 = getelementptr inbounds nuw %struct.SDL_AudioStream, ptr %161, i32 0, i32 22
  store ptr null, ptr %162, align 8
  %163 = load ptr, ptr %10, align 8
  %164 = getelementptr inbounds nuw %struct.SDL_LogicalAudioDevice, ptr %163, i32 0, i32 4
  %165 = load ptr, ptr %164, align 8
  %166 = load ptr, ptr %17, align 8
  %167 = getelementptr inbounds nuw %struct.SDL_AudioStream, ptr %166, i32 0, i32 21
  store ptr %165, ptr %167, align 8
  %168 = load ptr, ptr %10, align 8
  %169 = getelementptr inbounds nuw %struct.SDL_LogicalAudioDevice, ptr %168, i32 0, i32 4
  %170 = load ptr, ptr %169, align 8
  %171 = icmp ne ptr %170, null
  br i1 %171, label %172, label %178

172:                                              ; preds = %157
  %173 = load ptr, ptr %17, align 8
  %174 = load ptr, ptr %10, align 8
  %175 = getelementptr inbounds nuw %struct.SDL_LogicalAudioDevice, ptr %174, i32 0, i32 4
  %176 = load ptr, ptr %175, align 8
  %177 = getelementptr inbounds nuw %struct.SDL_AudioStream, ptr %176, i32 0, i32 22
  store ptr %173, ptr %177, align 8
  br label %178

178:                                              ; preds = %172, %157
  %179 = load ptr, ptr %17, align 8
  %180 = load ptr, ptr %10, align 8
  %181 = getelementptr inbounds nuw %struct.SDL_LogicalAudioDevice, ptr %180, i32 0, i32 4
  store ptr %179, ptr %181, align 8
  %182 = load ptr, ptr %17, align 8
  %183 = getelementptr inbounds nuw %struct.SDL_AudioStream, ptr %182, i32 0, i32 0
  %184 = load ptr, ptr %183, align 8
  call void @SDL_UnlockMutex_REAL(ptr noundef %184)
  br label %185

185:                                              ; preds = %178, %149
  call void @llvm.lifetime.end.p0(i64 8, ptr %17) #6
  br label %186

186:                                              ; preds = %185
  %187 = load i32, ptr %16, align 4
  %188 = add nsw i32 %187, 1
  store i32 %188, ptr %16, align 4
  br label %144, !llvm.loop !24

189:                                              ; preds = %148
  br label %190

190:                                              ; preds = %189, %140
  %191 = load ptr, ptr %9, align 8
  call void @UpdateAudioStreamFormatsPhysical(ptr noundef %191)
  %192 = load ptr, ptr %9, align 8
  call void @ReleaseAudioDevice(ptr noundef %192)
  %193 = load i8, ptr %11, align 1, !range !5, !noundef !6
  %194 = trunc i8 %193 to i1
  store i1 %194, ptr %4, align 1
  store i32 1, ptr %12, align 4
  br label %195

195:                                              ; preds = %190, %39, %34, %29, %25
  call void @llvm.lifetime.end.p0(i64 1, ptr %11) #6
  call void @llvm.lifetime.end.p0(i64 8, ptr %10) #6
  call void @llvm.lifetime.end.p0(i64 8, ptr %9) #6
  call void @llvm.lifetime.end.p0(i64 1, ptr %8) #6
  %196 = load i1, ptr %4, align 1
  ret i1 %196
}