; Function Attrs: nounwind uwtable
define hidden zeroext i1 @SDL_BindAudioStreams_REAL(i32 noundef %0, ptr noundef readonly captures(address_is_null) %1, i32 noundef %2) local_unnamed_addr #0 {
  %4 = alloca ptr, align 8
  %5 = and i32 %0, 2
  %.not = icmp eq i32 %5, 0
  call void @llvm.lifetime.start.p0(i64 8, ptr nonnull %4) #14
  store ptr null, ptr %4, align 8
  %6 = icmp eq i32 %2, 0
  br i1 %6, label %63, label %7

7:                                                ; preds = %3
  %8 = icmp slt i32 %2, 0
  br i1 %8, label %9, label %11

9:                                                ; preds = %7
  %10 = tail call zeroext i1 (ptr, ...) @SDL_SetError_REAL(ptr noundef nonnull @.str, ptr noundef nonnull @.str.17) #14
  br label %63

11:                                               ; preds = %7
  %.not59 = icmp eq ptr %1, null
  br i1 %.not59, label %12, label %14

12:                                               ; preds = %11
  %13 = tail call zeroext i1 (ptr, ...) @SDL_SetError_REAL(ptr noundef nonnull @.str, ptr noundef nonnull @.str.18) #14
  br label %63

14:                                               ; preds = %11
  br i1 %.not, label %17, label %15

15:                                               ; preds = %14
  %16 = tail call zeroext i1 (ptr, ...) @SDL_SetError_REAL(ptr noundef nonnull @.str.19) #14
  br label %63

17:                                               ; preds = %14
  %18 = call fastcc ptr @ObtainLogicalAudioDevice(i32 noundef %0, ptr noundef %4)
  %.not60 = icmp eq ptr %18, null
  br i1 %.not60, label %.thread67, label %19

19:                                               ; preds = %17
  %20 = getelementptr inbounds nuw i8, ptr %18, i64 33
  %21 = load i8, ptr %20, align 1, !range !6, !noundef !7
  %22 = trunc nuw i8 %21 to i1
  br i1 %22, label %23, label %.lr.ph.preheader

.lr.ph.preheader:                                 ; preds = %19
  %wide.trip.count = zext nneg i32 %2 to i64
  br label %.lr.ph

23:                                               ; preds = %19
  %24 = tail call zeroext i1 (ptr, ...) @SDL_SetError_REAL(ptr noundef nonnull @.str.20) #14
  br i1 %24, label %.lr.ph87, label %.thread67

.lr.ph87:                                         ; preds = %.critedge, %23
  %25 = getelementptr inbounds nuw i8, ptr %18, i64 24
  %smax = tail call i32 @llvm.smax.i32(i32 %2, i32 1)
  %wide.trip.count106 = zext nneg i32 %smax to i64
  br label %49

.lr.ph:                                           ; preds = %.lr.ph.preheader, %.critedge
  %indvars.iv = phi i64 [ 0, %.lr.ph.preheader ], [ %indvars.iv.next, %.critedge ]
  %26 = getelementptr inbounds nuw ptr, ptr %1, i64 %indvars.iv
  %27 = load ptr, ptr %26, align 8
  %.not61 = icmp eq ptr %27, null
  br i1 %.not61, label %.critedge74, label %30

.critedge74:                                      ; preds = %.lr.ph
  %28 = trunc nuw nsw i64 %indvars.iv to i32
  %29 = tail call zeroext i1 (ptr, ...) @SDL_SetError_REAL(ptr noundef nonnull @.str.21, i32 noundef %28) #14
  br label %.preheader75

30:                                               ; preds = %.lr.ph
  %31 = load ptr, ptr %27, align 8
  tail call void @SDL_LockMutex_REAL(ptr noundef %31) #14
  %32 = getelementptr inbounds nuw i8, ptr %27, i64 192
  %33 = load ptr, ptr %32, align 8
  %.not62 = icmp eq ptr %33, null
  br i1 %.not62, label %37, label %34

34:                                               ; preds = %30
  %35 = trunc nuw nsw i64 %indvars.iv to i32
  %36 = tail call zeroext i1 (ptr, ...) @SDL_SetError_REAL(ptr noundef nonnull @.str.22, i32 noundef %35) #14
  br i1 %36, label %.critedge, label %.preheader75.loopexit

37:                                               ; preds = %30
  %38 = getelementptr inbounds nuw i8, ptr %27, i64 184
  %39 = load i8, ptr %38, align 8, !range !6, !noundef !7
  %40 = trunc nuw i8 %39 to i1
  br i1 %40, label %41, label %.critedge

41:                                               ; preds = %37
  %42 = tail call zeroext i1 (ptr, ...) @SDL_SetError_REAL(ptr noundef nonnull @.str.23) #14
  br i1 %42, label %.critedge, label %.preheader75.loopexit

.preheader75.loopexit:                            ; preds = %34, %41
  %43 = trunc nuw nsw i64 %indvars.iv to i32
  br label %.preheader75

.preheader75:                                     ; preds = %.preheader75.loopexit, %.critedge74
  %.0498396 = phi i32 [ %43, %.preheader75.loopexit ], [ %28, %.critedge74 ]
  %.not88 = icmp eq i32 %.0498396, 0
  br i1 %.not88, label %._crit_edge, label %.lr.ph85.preheader

.lr.ph85.preheader:                               ; preds = %.preheader75
  %wide.trip.count101 = zext i32 %.0498396 to i64
  br label %.lr.ph85

.lr.ph85:                                         ; preds = %.lr.ph85.preheader, %.lr.ph85
  %indvars.iv98 = phi i64 [ 0, %.lr.ph85.preheader ], [ %indvars.iv.next99, %.lr.ph85 ]
  %44 = getelementptr inbounds nuw ptr, ptr %1, i64 %indvars.iv98
  %45 = load ptr, ptr %44, align 8
  %46 = load ptr, ptr %45, align 8
  tail call void @SDL_UnlockMutex_REAL(ptr noundef %46) #14
  %indvars.iv.next99 = add nuw nsw i64 %indvars.iv98, 1
  %exitcond102.not = icmp eq i64 %indvars.iv.next99, %wide.trip.count101
  br i1 %exitcond102.not, label %._crit_edge, label %.lr.ph85, !llvm.loop !22

._crit_edge:                                      ; preds = %.lr.ph85, %.preheader75
  br i1 %.not61, label %.thread67, label %47

47:                                               ; preds = %._crit_edge
  %48 = load ptr, ptr %27, align 8
  tail call void @SDL_UnlockMutex_REAL(ptr noundef %48) #14
  br label %.thread67

.critedge:                                        ; preds = %34, %37, %41
  %indvars.iv.next = add nuw nsw i64 %indvars.iv, 1
  %exitcond.not = icmp eq i64 %indvars.iv.next, %wide.trip.count
  br i1 %exitcond.not, label %.lr.ph87, label %.lr.ph, !llvm.loop !23

49:                                               ; preds = %.lr.ph87, %61
  %indvars.iv103 = phi i64 [ 0, %.lr.ph87 ], [ %indvars.iv.next104, %61 ]
  %50 = getelementptr inbounds nuw ptr, ptr %1, i64 %indvars.iv103
  %51 = load ptr, ptr %50, align 8
  %.not63 = icmp eq ptr %51, null
  br i1 %.not63, label %61, label %52

52:                                               ; preds = %49
  %53 = getelementptr inbounds nuw i8, ptr %51, i64 192
  store ptr %18, ptr %53, align 8
  %54 = getelementptr inbounds nuw i8, ptr %51, i64 208
  store ptr null, ptr %54, align 8
  %55 = load ptr, ptr %25, align 8
  %56 = getelementptr inbounds nuw i8, ptr %51, i64 200
  store ptr %55, ptr %56, align 8
  %.not64 = icmp eq ptr %55, null
  br i1 %.not64, label %59, label %57

57:                                               ; preds = %52
  %58 = getelementptr inbounds nuw i8, ptr %55, i64 208
  store ptr %51, ptr %58, align 8
  br label %59

59:                                               ; preds = %57, %52
  store ptr %51, ptr %25, align 8
  %60 = load ptr, ptr %51, align 8
  tail call void @SDL_UnlockMutex_REAL(ptr noundef %60) #14
  br label %61

61:                                               ; preds = %59, %49
  %indvars.iv.next104 = add nuw nsw i64 %indvars.iv103, 1
  %exitcond107.not = icmp eq i64 %indvars.iv.next104, %wide.trip.count106
  br i1 %exitcond107.not, label %.thread67, label %49, !llvm.loop !24

.thread67:                                        ; preds = %61, %._crit_edge, %47, %17, %23
  %.05169 = phi i1 [ false, %23 ], [ false, %17 ], [ false, %47 ], [ false, %._crit_edge ], [ true, %61 ]
  %62 = load ptr, ptr %4, align 8
  tail call fastcc void @UpdateAudioStreamFormatsPhysical(ptr noundef %62)
  tail call fastcc void @ReleaseAudioDevice(ptr noundef %62)
  br label %63

63:                                               ; preds = %3, %.thread67, %15, %12, %9
  %.0 = phi i1 [ %10, %9 ], [ %.05169, %.thread67 ], [ %16, %15 ], [ %13, %12 ], [ true, %3 ]
  call void @llvm.lifetime.end.p0(i64 8, ptr nonnull %4) #14
  ret i1 %.0
}